; ModuleID = 'bench/php/original/canvas_element.ll'
source_filename = "bench/php/original/canvas_element.ll"
target datalayout = "e-m:e-p270:32:32-p271:32:32-p272:64:64-i64:64-i128:128-f80:128-n8:16:32:64-S128"
target triple = "x86_64-pc-linux-gnu"

; Function Attrs: nounwind uwtable
define hidden ptr @lxb_html_canvas_element_interface_create(ptr nocapture noundef readonly %0) local_unnamed_addr #0 {
  %2 = getelementptr inbounds i8, ptr %0, i64 184
  %3 = load ptr, ptr %2, align 8
  %4 = tail call ptr @lexbor_mraw_calloc(ptr noundef %3, i64 noundef 184) #2
  %5 = icmp eq ptr %4, null
  br i1 %5, label %11, label %6

6:                                                ; preds = %1
  %7 = getelementptr inbounds i8, ptr %0, i64 32
  %8 = load ptr, ptr %7, align 8
  %9 = getelementptr inbounds i8, ptr %4, i64 32
  store ptr %8, ptr %9, align 8
  %10 = getelementptr inbounds i8, ptr %4, i64 88
  store i32 1, ptr %10, align 8
  br label %11

11:                                               ; preds = %1, %6
  ret ptr %4
}

declare ptr @lexbor_mraw_calloc(ptr noundef, i64 noundef) local_unnamed_addr #1

; Function Attrs: nounwind uwtable
define hidden noalias noundef ptr @lxb_html_canvas_element_interface_destroy(ptr noundef %0) local_unnamed_addr #0 {
  %2 = tail call ptr @lxb_dom_node_interface_destroy(ptr noundef %0) #2
  ret ptr null
}

declare ptr @lxb_dom_node_interface_destroy(ptr noundef) local_unnamed_addr #1


!llvm.module.flags = !{!0, !1, !2, !3}

!0 = !{i32 1, !"wchar_size", i32 4}
!1 = !{i32 8, !"PIC Level", i32 2}
!2 = !{i32 7, !"uwtable", i32 2}
!3 = !{i32 7, !"frame-pointer", i32 2}
